; Function Attrs: nounwind uwtable
define zeroext range(i8 0, 2) i8 @l_Lean_Elab_FixedParams_Info_mayBeFixed(ptr noundef %0, ptr noundef %1, ptr noundef readonly captures(none) %2) local_unnamed_addr #1 {
  %4 = getelementptr inbounds nuw i8, ptr %2, i64 8
  %5 = load ptr, ptr %4, align 8, !tbaa !9
  %6 = load ptr, ptr @l_Lean_Elab_FixedParams_Info_mayBeFixed___closed__1, align 8, !tbaa !9
  %7 = ptrtoint ptr %0 to i64
  %8 = and i64 %7, 1
  %.not.i15 = icmp eq i64 %8, 0
  br i1 %.not.i15, label %lean_array_uget.exit.i, label %9

9:                                                ; preds = %3
  %10 = lshr i64 %7, 1
  %11 = getelementptr i8, ptr %5, i64 8
  %.val.i = load i64, ptr %11, align 8, !tbaa !12
  %12 = icmp ult i64 %10, %.val.i
  br i1 %12, label %13, label %lean_array_uget.exit.i

13:                                               ; preds = %9
  %14 = ptrtoint ptr %6 to i64
  %15 = and i64 %14, 1
  %.not14.i = icmp eq i64 %15, 0
  br i1 %.not14.i, label %16, label %lean_dec.exit.i

16:                                               ; preds = %13
  %17 = load i32, ptr %6, align 4, !tbaa !4
  %18 = icmp sgt i32 %17, 1
  br i1 %18, label %19, label %21, !prof !11

19:                                               ; preds = %16
  %20 = add nsw i32 %17, -1
  store i32 %20, ptr %6, align 4, !tbaa !4
  br label %lean_dec.exit.i

21:                                               ; preds = %16
  %.not.i.i = icmp eq i32 %17, 0
  br i1 %.not.i.i, label %lean_dec.exit.i, label %22

22:                                               ; preds = %21
  tail call void @lean_dec_ref_cold(ptr noundef nonnull %6) #5
  br label %lean_dec.exit.i

lean_dec.exit.i:                                  ; preds = %22, %21, %19, %13
  %23 = getelementptr inbounds nuw i8, ptr %5, i64 24
  %24 = getelementptr inbounds nuw [0 x ptr], ptr %23, i64 0, i64 %10
  %25 = load ptr, ptr %24, align 8, !tbaa !9
  %26 = ptrtoint ptr %25 to i64
  %27 = and i64 %26, 1
  %.not.i11.i = icmp eq i64 %27, 0
  br i1 %.not.i11.i, label %28, label %lean_array_get.exit

28:                                               ; preds = %lean_dec.exit.i
  %.val.i.i.i = load i32, ptr %25, align 4, !tbaa !4
  %29 = icmp sgt i32 %.val.i.i.i, 0
  br i1 %29, label %30, label %32, !prof !11

30:                                               ; preds = %28
  %31 = add nuw i32 %.val.i.i.i, 1
  store i32 %31, ptr %25, align 4, !tbaa !4
  br label %lean_array_get.exit

32:                                               ; preds = %28
  %.not.i.i.i = icmp eq i32 %.val.i.i.i, 0
  br i1 %.not.i.i.i, label %lean_array_get.exit, label %33

33:                                               ; preds = %32
  tail call void @lean_inc_ref_cold(ptr noundef nonnull %25) #5
  br label %lean_array_get.exit

lean_array_uget.exit.i:                           ; preds = %9, %3
  %34 = tail call ptr @lean_array_get_panic(ptr noundef %6) #5
  br label %lean_array_get.exit

lean_array_get.exit:                              ; preds = %lean_dec.exit.i, %30, %32, %33, %lean_array_uget.exit.i
  %.1.i = phi ptr [ %34, %lean_array_uget.exit.i ], [ %25, %33 ], [ %25, %32 ], [ %25, %30 ], [ %25, %lean_dec.exit.i ]
  %35 = ptrtoint ptr %1 to i64
  %36 = and i64 %35, 1
  %.not.i16 = icmp eq i64 %36, 0
  br i1 %.not.i16, label %lean_array_uget.exit.i18, label %37

37:                                               ; preds = %lean_array_get.exit
  %38 = lshr i64 %35, 1
  %39 = getelementptr i8, ptr %.1.i, i64 8
  %.val.i17 = load i64, ptr %39, align 8, !tbaa !12
  %40 = icmp ult i64 %38, %.val.i17
  br i1 %40, label %41, label %lean_array_uget.exit.i18

41:                                               ; preds = %37
  %42 = getelementptr inbounds nuw i8, ptr %.1.i, i64 24
  %43 = getelementptr inbounds nuw [0 x ptr], ptr %42, i64 0, i64 %38
  %44 = load ptr, ptr %43, align 8, !tbaa !9
  %45 = ptrtoint ptr %44 to i64
  %46 = and i64 %45, 1
  %.not.i11.i21 = icmp eq i64 %46, 0
  br i1 %.not.i11.i21, label %47, label %lean_array_get.exit24

47:                                               ; preds = %41
  %.val.i.i.i22 = load i32, ptr %44, align 4, !tbaa !4
  %48 = icmp sgt i32 %.val.i.i.i22, 0
  br i1 %48, label %49, label %51, !prof !11

49:                                               ; preds = %47
  %50 = add nuw i32 %.val.i.i.i22, 1
  store i32 %50, ptr %44, align 4, !tbaa !4
  br label %lean_array_get.exit24

51:                                               ; preds = %47
  %.not.i.i.i23 = icmp eq i32 %.val.i.i.i22, 0
  br i1 %.not.i.i.i23, label %lean_array_get.exit24, label %52

52:                                               ; preds = %51
  tail call void @lean_inc_ref_cold(ptr noundef nonnull %44) #5
  br label %lean_array_get.exit24

lean_array_uget.exit.i18:                         ; preds = %37, %lean_array_get.exit
  %53 = tail call ptr @lean_array_get_panic(ptr noundef nonnull inttoptr (i64 1 to ptr)) #5
  br label %lean_array_get.exit24

lean_array_get.exit24:                            ; preds = %41, %49, %51, %52, %lean_array_uget.exit.i18
  %.1.i19 = phi ptr [ %53, %lean_array_uget.exit.i18 ], [ %44, %52 ], [ %44, %51 ], [ %44, %49 ], [ %44, %41 ]
  %54 = ptrtoint ptr %.1.i to i64
  %55 = and i64 %54, 1
  %.not = icmp eq i64 %55, 0
  br i1 %.not, label %56, label %lean_dec.exit12

56:                                               ; preds = %lean_array_get.exit24
  %57 = load i32, ptr %.1.i, align 4, !tbaa !4
  %58 = icmp sgt i32 %57, 1
  br i1 %58, label %59, label %61, !prof !11

59:                                               ; preds = %56
  %60 = add nsw i32 %57, -1
  store i32 %60, ptr %.1.i, align 4, !tbaa !4
  br label %lean_dec.exit12

61:                                               ; preds = %56
  %.not.i = icmp eq i32 %57, 0
  br i1 %.not.i, label %lean_dec.exit12, label %62

62:                                               ; preds = %61
  tail call void @lean_dec_ref_cold(ptr noundef nonnull %.1.i) #5
  br label %lean_dec.exit12

lean_dec.exit12:                                  ; preds = %62, %61, %59, %lean_array_get.exit24
  %63 = ptrtoint ptr %.1.i19 to i64
  %64 = and i64 %63, 1
  %.not.i25 = icmp eq i64 %64, 0
  br i1 %.not.i25, label %lean_obj_tag.exit.thread, label %lean_obj_tag.exit

lean_obj_tag.exit:                                ; preds = %lean_dec.exit12
  %65 = and i64 %63, 8589934590
  %66 = icmp ne i64 %65, 0
  %spec.select = zext i1 %66 to i8
  br label %lean_dec.exit

lean_obj_tag.exit.thread:                         ; preds = %lean_dec.exit12
  %67 = getelementptr i8, ptr %.1.i19, i64 4
  %.val.i26 = load i32, ptr %67, align 4
  %68 = icmp ult i32 %.val.i26, 16777216
  br i1 %68, label %lean_dec.exit, label %.thread

.thread:                                          ; preds = %lean_obj_tag.exit.thread
  %69 = load i32, ptr %.1.i19, align 4, !tbaa !4
  %70 = icmp sgt i32 %69, 1
  br i1 %70, label %71, label %73, !prof !11

71:                                               ; preds = %.thread
  %72 = add nsw i32 %69, -1
  store i32 %72, ptr %.1.i19, align 4, !tbaa !4
  br label %lean_dec.exit

73:                                               ; preds = %.thread
  %.not.i13 = icmp eq i32 %69, 0
  br i1 %.not.i13, label %lean_dec.exit, label %74

74:                                               ; preds = %73
  tail call void @lean_dec_ref_cold(ptr noundef nonnull %.1.i19) #5
  br label %lean_dec.exit

lean_dec.exit:                                    ; preds = %lean_obj_tag.exit, %71, %73, %74, %lean_obj_tag.exit.thread
  %.0 = phi i8 [ 0, %lean_obj_tag.exit.thread ], [ 1, %74 ], [ 1, %73 ], [ 1, %71 ], [ %spec.select, %lean_obj_tag.exit ]
  ret i8 %.0
}